; ModuleID = 'source-C-CXX/9/2174.cpp'
source_filename = "source-C-CXX/9/2174.cpp"
target datalayout = "e-m:e-p270:32:32-p271:32:32-p272:64:64-i64:64-f80:128-n8:16:32:64-S128"
target triple = "x86_64-pc-linux-gnu"

%"class.std::ios_base::Init" = type { i8 }
%"class.std::basic_istream" = type { i32 (...)**, i64, %"class.std::basic_ios" }
%"class.std::basic_ios" = type { %"class.std::ios_base", %"class.std::basic_ostream"*, i8, i8, %"class.std::basic_streambuf"*, %"class.std::ctype"*, %"class.std::num_put"*, %"class.std::num_get"* }
%"class.std::ios_base" = type { i32 (...)**, i64, i64, i32, i32, i32, %"struct.std::ios_base::_Callback_list"*, %"struct.std::ios_base::_Words", [8 x %"struct.std::ios_base::_Words"], i32, %"struct.std::ios_base::_Words"*, %"class.std::locale" }
%"struct.std::ios_base::_Callback_list" = type { %"struct.std::ios_base::_Callback_list"*, void (i32, %"class.std::ios_base"*, i32)*, i32, i32 }
%"struct.std::ios_base::_Words" = type { i8*, i64 }
%"class.std::locale" = type { %"class.std::locale::_Impl"* }
%"class.std::locale::_Impl" = type { i32, %"class.std::locale::facet"**, i64, %"class.std::locale::facet"**, i8** }
%"class.std::locale::facet" = type <{ i32 (...)**, i32, [4 x i8] }>
%"class.std::basic_ostream" = type { i32 (...)**, %"class.std::basic_ios" }
%"class.std::basic_streambuf" = type { i32 (...)**, i8*, i8*, i8*, i8*, i8*, i8*, %"class.std::locale" }
%"class.std::ctype" = type <{ %"class.std::locale::facet.base", [4 x i8], %struct.__locale_struct*, i8, [7 x i8], i32*, i32*, i16*, i8, [256 x i8], [256 x i8], i8, [6 x i8] }>
%"class.std::locale::facet.base" = type <{ i32 (...)**, i32 }>
%struct.__locale_struct = type { [13 x %struct.__locale_data*], i16*, i32*, i32*, [13 x i8*] }
%struct.__locale_data = type opaque
%"class.std::num_put" = type { %"class.std::locale::facet.base", [4 x i8] }
%"class.std::num_get" = type { %"class.std::locale::facet.base", [4 x i8] }

@_ZStL8__ioinit = internal global %"class.std::ios_base::Init" zeroinitializer, align 1
@__dso_handle = external hidden global i8
@k = dso_local global i32 0, align 4
@i = dso_local local_unnamed_addr global i32 0, align 4
@j = dso_local local_unnamed_addr global i32 0, align 4
@an = dso_local global [30 x i32] zeroinitializer, align 16
@_ZSt3cin = external global %"class.std::basic_istream", align 8
@_ZSt4cout = external global %"class.std::basic_ostream", align 8
@llvm.global_ctors = appending global [1 x { i32, void ()*, i8* }] [{ i32, void ()*, i8* } { i32 65535, void ()* @_GLOBAL__sub_I_2174.cpp, i8* null }]

declare void @_ZNSt8ios_base4InitC1Ev(%"class.std::ios_base::Init"* nonnull align 1 dereferenceable(1)) unnamed_addr #0

; Function Attrs: nounwind
declare void @_ZNSt8ios_base4InitD1Ev(%"class.std::ios_base::Init"* nonnull align 1 dereferenceable(1)) unnamed_addr #1

; Function Attrs: nofree nounwind
declare i32 @__cxa_atexit(void (i8*)*, i8*, i8*) local_unnamed_addr #2

; Function Attrs: mustprogress nofree nosync nounwind readonly sspstrong uwtable willreturn
define dso_local i32 @_Z3DFSii(i32 %0, i32 %1) local_unnamed_addr #3 {
  %3 = load i32, i32* @k, align 4, !tbaa !5
  %4 = add nsw i32 %3, -1
  %5 = icmp eq i32 %4, %1
  br i1 %5, label %8, label %6

6:                                                ; preds = %2
  %7 = sext i32 %1 to i64
  br label %15

8:                                                ; preds = %20, %2
  %9 = phi i32 [ %1, %2 ], [ %4, %20 ]
  %10 = sext i32 %9 to i64
  %11 = getelementptr inbounds [30 x i32], [30 x i32]* @an, i64 0, i64 %10
  %12 = load i32, i32* %11, align 4, !tbaa !5
  %13 = icmp sle i32 %12, %0
  %14 = zext i1 %13 to i32
  br label %24

15:                                               ; preds = %6, %20
  %16 = phi i64 [ %7, %6 ], [ %21, %20 ]
  %17 = getelementptr inbounds [30 x i32], [30 x i32]* @an, i64 0, i64 %16
  %18 = load i32, i32* %17, align 4, !tbaa !5
  %19 = icmp sgt i32 %18, %0
  br i1 %19, label %20, label %26

20:                                               ; preds = %15
  %21 = add nsw i64 %16, 1
  %22 = trunc i64 %21 to i32
  %23 = icmp eq i32 %4, %22
  br i1 %23, label %8, label %15

24:                                               ; preds = %8, %26
  %25 = phi i32 [ %33, %26 ], [ %14, %8 ]
  ret i32 %25

26:                                               ; preds = %15
  %27 = trunc i64 %16 to i32
  %28 = add nsw i32 %27, 1
  %29 = tail call i32 @_Z3DFSii(i32 %0, i32 %28)
  %30 = tail call i32 @_Z3DFSii(i32 %18, i32 %28)
  %31 = add nsw i32 %30, 1
  %32 = icmp sgt i32 %29, %31
  %33 = select i1 %32, i32 %29, i32 %31
  br label %24
}

; Function Attrs: mustprogress norecurse sspstrong uwtable
define dso_local i32 @main() local_unnamed_addr #4 {
  %1 = tail call nonnull align 8 dereferenceable(16) %"class.std::basic_istream"* @_ZNSirsERi(%"class.std::basic_istream"* nonnull align 8 dereferenceable(16) @_ZSt3cin, i32* nonnull align 4 dereferenceable(4) @k)
  store i32 0, i32* @i, align 4, !tbaa !5
  %2 = load i32, i32* @k, align 4, !tbaa !5
  %3 = icmp sgt i32 %2, 0
  br i1 %3, label %4, label %13

4:                                                ; preds = %0, %4
  %5 = phi i32 [ %10, %4 ], [ 0, %0 ]
  %6 = sext i32 %5 to i64
  %7 = getelementptr inbounds [30 x i32], [30 x i32]* @an, i64 0, i64 %6
  %8 = tail call nonnull align 8 dereferenceable(16) %"class.std::basic_istream"* @_ZNSirsERi(%"class.std::basic_istream"* nonnull align 8 dereferenceable(16) @_ZSt3cin, i32* nonnull align 4 dereferenceable(4) %7)
  %9 = load i32, i32* @i, align 4, !tbaa !5
  %10 = add nsw i32 %9, 1
  store i32 %10, i32* @i, align 4, !tbaa !5
  %11 = load i32, i32* @k, align 4, !tbaa !5
  %12 = icmp slt i32 %10, %11
  br i1 %12, label %4, label %13, !llvm.loop !9

13:                                               ; preds = %4, %0
  %14 = tail call i32 @_Z3DFSii(i32 100, i32 0)
  %15 = tail call nonnull align 8 dereferenceable(8) %"class.std::basic_ostream"* @_ZNSolsEi(%"class.std::basic_ostream"* nonnull align 8 dereferenceable(8) @_ZSt4cout, i32 %14)
  %16 = bitcast %"class.std::basic_ostream"* %15 to i8**
  %17 = load i8*, i8** %16, align 8, !tbaa !11
  %18 = getelementptr i8, i8* %17, i64 -24
  %19 = bitcast i8* %18 to i64*
  %20 = load i64, i64* %19, align 8
  %21 = bitcast %"class.std::basic_ostream"* %15 to i8*
  %22 = add nsw i64 %20, 240
  %23 = getelementptr inbounds i8, i8* %21, i64 %22
  %24 = bitcast i8* %23 to %"class.std::ctype"**
  %25 = load %"class.std::ctype"*, %"class.std::ctype"** %24, align 8, !tbaa !13
  %26 = icmp eq %"class.std::ctype"* %25, null
  br i1 %26, label %27, label %28

27:                                               ; preds = %13
  tail call void @_ZSt16__throw_bad_castv() #7
  unreachable

28:                                               ; preds = %13
  %29 = getelementptr inbounds %"class.std::ctype", %"class.std::ctype"* %25, i64 0, i32 8
  %30 = load i8, i8* %29, align 8, !tbaa !17
  %31 = icmp eq i8 %30, 0
  br i1 %31, label %35, label %32

32:                                               ; preds = %28
  %33 = getelementptr inbounds %"class.std::ctype", %"class.std::ctype"* %25, i64 0, i32 9, i64 10
  %34 = load i8, i8* %33, align 1, !tbaa !19
  br label %41

35:                                               ; preds = %28
  tail call void @_ZNKSt5ctypeIcE13_M_widen_initEv(%"class.std::ctype"* nonnull align 8 dereferenceable(570) %25)
  %36 = bitcast %"class.std::ctype"* %25 to i8 (%"class.std::ctype"*, i8)***
  %37 = load i8 (%"class.std::ctype"*, i8)**, i8 (%"class.std::ctype"*, i8)*** %36, align 8, !tbaa !11
  %38 = getelementptr inbounds i8 (%"class.std::ctype"*, i8)*, i8 (%"class.std::ctype"*, i8)** %37, i64 6
  %39 = load i8 (%"class.std::ctype"*, i8)*, i8 (%"class.std::ctype"*, i8)** %38, align 8
  %40 = tail call signext i8 %39(%"class.std::ctype"* nonnull align 8 dereferenceable(570) %25, i8 signext 10)
  br label %41

41:                                               ; preds = %32, %35
  %42 = phi i8 [ %34, %32 ], [ %40, %35 ]
  %43 = tail call nonnull align 8 dereferenceable(8) %"class.std::basic_ostream"* @_ZNSo3putEc(%"class.std::basic_ostream"* nonnull align 8 dereferenceable(8) %15, i8 signext %42)
  %44 = tail call nonnull align 8 dereferenceable(8) %"class.std::basic_ostream"* @_ZNSo5flushEv(%"class.std::basic_ostream"* nonnull align 8 dereferenceable(8) %43)
  ret i32 0
}

declare nonnull align 8 dereferenceable(16) %"class.std::basic_istream"* @_ZNSirsERi(%"class.std::basic_istream"* nonnull align 8 dereferenceable(16), i32* nonnull align 4 dereferenceable(4)) local_unnamed_addr #0

declare nonnull align 8 dereferenceable(8) %"class.std::basic_ostream"* @_ZNSolsEi(%"class.std::basic_ostream"* nonnull align 8 dereferenceable(8), i32) local_unnamed_addr #0

declare nonnull align 8 dereferenceable(8) %"class.std::basic_ostream"* @_ZNSo3putEc(%"class.std::basic_ostream"* nonnull align 8 dereferenceable(8), i8 signext) local_unnamed_addr #0

declare nonnull align 8 dereferenceable(8) %"class.std::basic_ostream"* @_ZNSo5flushEv(%"class.std::basic_ostream"* nonnull align 8 dereferenceable(8)) local_unnamed_addr #0

; Function Attrs: noreturn
declare void @_ZSt16__throw_bad_castv() local_unnamed_addr #5

declare void @_ZNKSt5ctypeIcE13_M_widen_initEv(%"class.std::ctype"* nonnull align 8 dereferenceable(570)) local_unnamed_addr #0

; Function Attrs: sspstrong uwtable
define internal void @_GLOBAL__sub_I_2174.cpp() #6 section ".text.startup" {
  tail call void @_ZNSt8ios_base4InitC1Ev(%"class.std::ios_base::Init"* nonnull align 1 dereferenceable(1) @_ZStL8__ioinit)
  %1 = tail call i32 @__cxa_atexit(void (i8*)* bitcast (void (%"class.std::ios_base::Init"*)* @_ZNSt8ios_base4InitD1Ev to void (i8*)*), i8* getelementptr inbounds (%"class.std::ios_base::Init", %"class.std::ios_base::Init"* @_ZStL8__ioinit, i64 0, i32 0), i8* nonnull @__dso_handle) #8
  ret void
}


!llvm.module.flags = !{!0, !1, !2, !3}
!llvm.ident = !{!4}

!0 = !{i32 1, !"wchar_size", i32 4}
!1 = !{i32 7, !"PIC Level", i32 2}
!2 = !{i32 7, !"PIE Level", i32 2}
!3 = !{i32 7, !"uwtable", i32 1}
!4 = !{!"clang version 13.0.0"}
!5 = !{!6, !6, i64 0}
!6 = !{!"int", !7, i64 0}
!7 = !{!"omnipotent char", !8, i64 0}
!8 = !{!"Simple C++ TBAA"}
!9 = distinct !{!9, !10}
!10 = !{!"llvm.loop.mustprogress"}
!11 = !{!12, !12, i64 0}
!12 = !{!"vtable pointer", !8, i64 0}
!13 = !{!14, !15, i64 240}
!14 = !{!"_ZTSSt9basic_iosIcSt11char_traitsIcEE", !15, i64 216, !7, i64 224, !16, i64 225, !15, i64 232, !15, i64 240, !15, i64 248, !15, i64 256}
!15 = !{!"any pointer", !7, i64 0}
!16 = !{!"bool", !7, i64 0}
!17 = !{!18, !7, i64 56}
!18 = !{!"_ZTSSt5ctypeIcE", !15, i64 16, !16, i64 24, !15, i64 32, !15, i64 40, !15, i64 48, !7, i64 56, !7, i64 57, !7, i64 313, !7, i64 569}
!19 = !{!7, !7, i64 0}
